target datalayout = "e-m:e-p270:32:32-p271:32:32-p272:64:64-i64:64-i128:128-f80:128-n8:16:32:64-S128"
target triple = "x86_64-unknown-linux-gnu"

%class.params_ref = type { ptr }
%class.params = type <{ %class.svector.0, %"struct.std::atomic", [4 x i8] }>
%class.svector.0 = type { %class.vector.1 }
%class.vector.1 = type { ptr }
%"struct.std::atomic" = type { %"struct.std::__atomic_base" }
%"struct.std::__atomic_base" = type { i32 }

; Function Attrs: mustprogress uwtable
define linkonce_odr hidden void @_ZN6vectorISt4pairI6symbolN6params5valueEELb0EjE11free_memoryEv(ptr noundef nonnull align 8 dereferenceable(8) %this) #5 comdat align 2 {
entry:
  %this.addr = alloca ptr, align 8
  store ptr %this, ptr %this.addr, align 8
  %this1 = load ptr, ptr %this.addr, align 8
  %m_data = getelementptr inbounds %class.vector.1, ptr %this1, i32 0, i32 0
  %0 = load ptr, ptr %m_data, align 8
  %add.ptr = getelementptr inbounds i32, ptr %0, i64 -2
  call void @_ZN6memory10deallocateEPv(ptr noundef %add.ptr)
  ret void
}

; Function Attrs: mustprogress uwtable
define linkonce_odr hidden void @_ZN6vectorISt4pairI6symbolN6params5valueEELb0EjE7destroyEv(ptr noundef nonnull align 8 dereferenceable(8) %this) #5 comdat align 2 {
entry:
  %this.addr = alloca ptr, align 8
  store ptr %this, ptr %this.addr, align 8
  %this1 = load ptr, ptr %this.addr, align 8
  %m_data = getelementptr inbounds %class.vector.1, ptr %this1, i32 0, i32 0
  %0 = load ptr, ptr %m_data, align 8
  %tobool = icmp ne ptr %0, null
  br i1 %tobool, label %if.then, label %if.end

if.then:                                          ; preds = %entry
  call void @_ZN6vectorISt4pairI6symbolN6params5valueEELb0EjE11free_memoryEv(ptr noundef nonnull align 8 dereferenceable(8) %this1)
  br label %if.end

if.end:                                           ; preds = %if.then, %entry
  ret void
}

; Function Attrs: mustprogress nounwind uwtable
define linkonce_odr hidden void @_ZN6vectorISt4pairI6symbolN6params5valueEELb0EjED2Ev(ptr noundef nonnull align 8 dereferenceable(8) %this) unnamed_addr #4 comdat align 2 personality ptr @__gxx_personality_v0 {
entry:
  %this.addr = alloca ptr, align 8
  store ptr %this, ptr %this.addr, align 8
  %this1 = load ptr, ptr %this.addr, align 8
  invoke void @_ZN6vectorISt4pairI6symbolN6params5valueEELb0EjE7destroyEv(ptr noundef nonnull align 8 dereferenceable(8) %this1)
          to label %invoke.cont unwind label %terminate.lpad

invoke.cont:                                      ; preds = %entry
  ret void

terminate.lpad:                                   ; preds = %entry
  %0 = landingpad { ptr, i32 }
          catch ptr null
  %1 = extractvalue { ptr, i32 } %0, 0
  call void @__clang_call_terminate(ptr %1) #16
  unreachable
}

; Function Attrs: mustprogress nounwind uwtable
define linkonce_odr hidden void @_ZN7svectorISt4pairI6symbolN6params5valueEEjED2Ev(ptr noundef nonnull align 8 dereferenceable(8) %this) unnamed_addr #4 comdat align 2 {
entry:
  %this.addr = alloca ptr, align 8
  store ptr %this, ptr %this.addr, align 8
  %this1 = load ptr, ptr %this.addr, align 8
  call void @_ZN6vectorISt4pairI6symbolN6params5valueEELb0EjED2Ev(ptr noundef nonnull align 8 dereferenceable(8) %this1) #3
  ret void
}

; Function Attrs: mustprogress nounwind uwtable
define linkonce_odr hidden void @_ZN6paramsD2Ev(ptr noundef nonnull align 8 dereferenceable(12) %this) unnamed_addr #4 comdat align 2 personality ptr @__gxx_personality_v0 {
entry:
  %this.addr = alloca ptr, align 8
  store ptr %this, ptr %this.addr, align 8
  %this1 = load ptr, ptr %this.addr, align 8
  invoke void @_ZN6params5resetEv(ptr noundef nonnull align 8 dereferenceable(12) %this1)
          to label %invoke.cont unwind label %terminate.lpad

invoke.cont:                                      ; preds = %entry
  %m_entries = getelementptr inbounds %class.params, ptr %this1, i32 0, i32 0
  call void @_ZN7svectorISt4pairI6symbolN6params5valueEEjED2Ev(ptr noundef nonnull align 8 dereferenceable(8) %m_entries) #3
  ret void

terminate.lpad:                                   ; preds = %entry
  %0 = landingpad { ptr, i32 }
          catch ptr null
  %1 = extractvalue { ptr, i32 } %0, 0
  call void @__clang_call_terminate(ptr %1) #16
  unreachable
}

; Function Attrs: mustprogress uwtable
define linkonce_odr hidden void @_Z7deallocI6paramsEvPT_(ptr noundef %ptr) #5 comdat {
entry:
  %ptr.addr = alloca ptr, align 8
  store ptr %ptr, ptr %ptr.addr, align 8
  %0 = load ptr, ptr %ptr.addr, align 8
  %cmp = icmp eq ptr %0, null
  br i1 %cmp, label %if.then, label %if.end

if.then:                                          ; preds = %entry
  br label %return

if.end:                                           ; preds = %entry
  %1 = load ptr, ptr %ptr.addr, align 8
  call void @_ZN6paramsD2Ev(ptr noundef nonnull align 8 dereferenceable(12) %1) #3
  %2 = load ptr, ptr %ptr.addr, align 8
  call void @_ZN6memory10deallocateEPv(ptr noundef %2)
  br label %return

return:                                           ; preds = %if.end, %if.then
  ret void
}

; Function Attrs: mustprogress nounwind uwtable
define linkonce_odr hidden noundef i32 @_ZNSt13__atomic_baseIjEmmEv(ptr noundef nonnull align 4 dereferenceable(4) %this) #4 comdat align 2 {
entry:
  %this.addr = alloca ptr, align 8
  %.atomictmp = alloca i32, align 4
  %atomic-temp = alloca i32, align 4
  store ptr %this, ptr %this.addr, align 8
  %this1 = load ptr, ptr %this.addr, align 8
  %_M_i = getelementptr inbounds %"struct.std::__atomic_base", ptr %this1, i32 0, i32 0
  store i32 1, ptr %.atomictmp, align 4
  %0 = load i32, ptr %.atomictmp, align 4
  %1 = atomicrmw sub ptr %_M_i, i32 %0 seq_cst, align 4
  %2 = sub i32 %1, %0
  store i32 %2, ptr %atomic-temp, align 4
  %3 = load i32, ptr %atomic-temp, align 4
  ret i32 %3
}

; Function Attrs: mustprogress nounwind uwtable
define linkonce_odr hidden noundef i32 @_ZNSt13__atomic_baseIjEppEi(ptr noundef nonnull align 4 dereferenceable(4) %this, i32 noundef %0) #4 comdat align 2 {
entry:
  %this.addr.i = alloca ptr, align 8
  %__i.addr.i = alloca i32, align 4
  %__m.addr.i = alloca i32, align 4
  %.atomictmp.i = alloca i32, align 4
  %atomic-temp.i = alloca i32, align 4
  %this.addr = alloca ptr, align 8
  %.addr = alloca i32, align 4
  store ptr %this, ptr %this.addr, align 8
  store i32 %0, ptr %.addr, align 4
  %this1 = load ptr, ptr %this.addr, align 8
  store ptr %this1, ptr %this.addr.i, align 8
  store i32 1, ptr %__i.addr.i, align 4
  store i32 5, ptr %__m.addr.i, align 4
  %this1.i = load ptr, ptr %this.addr.i, align 8
  %1 = load i32, ptr %__m.addr.i, align 4
  %2 = load i32, ptr %__i.addr.i, align 4
  store i32 %2, ptr %.atomictmp.i, align 4
  switch i32 %1, label %monotonic.i [
    i32 1, label %acquire.i
    i32 2, label %acquire.i
    i32 3, label %release.i
    i32 4, label %acqrel.i
    i32 5, label %seqcst.i
  ]

monotonic.i:                                      ; preds = %entry
  %3 = load i32, ptr %.atomictmp.i, align 4
  %4 = atomicrmw add ptr %this1.i, i32 %3 monotonic, align 4
  store i32 %4, ptr %atomic-temp.i, align 4
  br label %_ZNSt13__atomic_baseIjE9fetch_addEjSt12memory_order.exit

acquire.i:                                        ; preds = %entry, %entry
  %5 = load i32, ptr %.atomictmp.i, align 4
  %6 = atomicrmw add ptr %this1.i, i32 %5 acquire, align 4
  store i32 %6, ptr %atomic-temp.i, align 4
  br label %_ZNSt13__atomic_baseIjE9fetch_addEjSt12memory_order.exit

release.i:                                        ; preds = %entry
  %7 = load i32, ptr %.atomictmp.i, align 4
  %8 = atomicrmw add ptr %this1.i, i32 %7 release, align 4
  store i32 %8, ptr %atomic-temp.i, align 4
  br label %_ZNSt13__atomic_baseIjE9fetch_addEjSt12memory_order.exit

acqrel.i:                                         ; preds = %entry
  %9 = load i32, ptr %.atomictmp.i, align 4
  %10 = atomicrmw add ptr %this1.i, i32 %9 acq_rel, align 4
  store i32 %10, ptr %atomic-temp.i, align 4
  br label %_ZNSt13__atomic_baseIjE9fetch_addEjSt12memory_order.exit

seqcst.i:                                         ; preds = %entry
  %11 = load i32, ptr %.atomictmp.i, align 4
  %12 = atomicrmw add ptr %this1.i, i32 %11 seq_cst, align 4
  store i32 %12, ptr %atomic-temp.i, align 4
  br label %_ZNSt13__atomic_baseIjE9fetch_addEjSt12memory_order.exit

_ZNSt13__atomic_baseIjE9fetch_addEjSt12memory_order.exit: ; preds = %seqcst.i, %acqrel.i, %release.i, %acquire.i, %monotonic.i
  %13 = load i32, ptr %atomic-temp.i, align 4
  ret i32 %13
}

; Function Attrs: mustprogress uwtable
define linkonce_odr hidden void @_ZN6params7dec_refEv(ptr noundef nonnull align 8 dereferenceable(12) %this) #5 comdat align 2 {
entry:
  %this.addr = alloca ptr, align 8
  store ptr %this, ptr %this.addr, align 8
  %this1 = load ptr, ptr %this.addr, align 8
  %m_ref_count = getelementptr inbounds %class.params, ptr %this1, i32 0, i32 1
  %call = call noundef i32 @_ZNSt13__atomic_baseIjEmmEv(ptr noundef nonnull align 4 dereferenceable(4) %m_ref_count) #3
  %cmp = icmp eq i32 %call, 0
  br i1 %cmp, label %if.then, label %if.end

if.then:                                          ; preds = %entry
  call void @_Z7deallocI6paramsEvPT_(ptr noundef %this1)
  br label %if.end

if.end:                                           ; preds = %if.then, %entry
  ret void
}

; Function Attrs: mustprogress nounwind uwtable
define linkonce_odr hidden void @_ZN6params7inc_refEv(ptr noundef nonnull align 8 dereferenceable(12) %this) #4 comdat align 2 {
entry:
  %this.addr = alloca ptr, align 8
  store ptr %this, ptr %this.addr, align 8
  %this1 = load ptr, ptr %this.addr, align 8
  %m_ref_count = getelementptr inbounds %class.params, ptr %this1, i32 0, i32 1
  %call = call noundef i32 @_ZNSt13__atomic_baseIjEppEi(ptr noundef nonnull align 4 dereferenceable(4) %m_ref_count, i32 noundef 0) #3
  ret void
}

; Function Attrs: mustprogress uwtable
define hidden void @_ZN10params_ref3setERKS_(ptr noundef nonnull align 8 dereferenceable(8) %this, ptr noundef nonnull align 8 dereferenceable(8) %p) #5 align 2 {
entry:
  %this.addr = alloca ptr, align 8
  %p.addr = alloca ptr, align 8
  store ptr %this, ptr %this.addr, align 8
  store ptr %p, ptr %p.addr, align 8
  %this1 = load ptr, ptr %this.addr, align 8
  %0 = load ptr, ptr %p.addr, align 8
  %m_params = getelementptr inbounds %class.params_ref, ptr %0, i32 0, i32 0
  %1 = load ptr, ptr %m_params, align 8
  %tobool = icmp ne ptr %1, null
  br i1 %tobool, label %if.then, label %if.end

if.then:                                          ; preds = %entry
  %2 = load ptr, ptr %p.addr, align 8
  %m_params2 = getelementptr inbounds %class.params_ref, ptr %2, i32 0, i32 0
  %3 = load ptr, ptr %m_params2, align 8
  call void @_ZN6params7inc_refEv(ptr noundef nonnull align 8 dereferenceable(12) %3)
  br label %if.end

if.end:                                           ; preds = %if.then, %entry
  %m_params3 = getelementptr inbounds %class.params_ref, ptr %this1, i32 0, i32 0
  %4 = load ptr, ptr %m_params3, align 8
  %tobool4 = icmp ne ptr %4, null
  br i1 %tobool4, label %if.then5, label %if.end7

if.then5:                                         ; preds = %if.end
  %m_params6 = getelementptr inbounds %class.params_ref, ptr %this1, i32 0, i32 0
  %5 = load ptr, ptr %m_params6, align 8
  call void @_ZN6params7dec_refEv(ptr noundef nonnull align 8 dereferenceable(12) %5)
  br label %if.end7

if.end7:                                          ; preds = %if.then5, %if.end
  %6 = load ptr, ptr %p.addr, align 8
  %m_params8 = getelementptr inbounds %class.params_ref, ptr %6, i32 0, i32 0
  %7 = load ptr, ptr %m_params8, align 8
  %m_params9 = getelementptr inbounds %class.params_ref, ptr %this1, i32 0, i32 0
  store ptr %7, ptr %m_params9, align 8
  ret void
}