; Function Attrs: mustprogress uwtable
define hidden void @_ZN10params_ref3setERKS_(ptr nocapture noundef nonnull align 8 dereferenceable(8) %this, ptr nocapture noundef nonnull readonly align 8 dereferenceable(8) %p) local_unnamed_addr #3 align 2 personality ptr @__gxx_personality_v0 {
entry:
  %0 = load ptr, ptr %p, align 8
  %tobool.not = icmp eq ptr %0, null
  br i1 %tobool.not, label %if.end, label %if.then

if.then:                                          ; preds = %entry
  %m_ref_count.i = getelementptr inbounds i8, ptr %0, i64 8
  %1 = atomicrmw add ptr %m_ref_count.i, i32 1 seq_cst, align 4
  br label %if.end

if.end:                                           ; preds = %if.then, %entry
  %2 = load ptr, ptr %this, align 8
  %tobool4.not = icmp eq ptr %2, null
  br i1 %tobool4.not, label %if.end7, label %if.then5

if.then5:                                         ; preds = %if.end
  %m_ref_count.i4 = getelementptr inbounds i8, ptr %2, i64 8
  %3 = atomicrmw sub ptr %m_ref_count.i4, i32 1 seq_cst, align 4
  %cmp.i = icmp eq i32 %3, 1
  br i1 %cmp.i, label %if.then.i, label %if.end7

if.then.i:                                        ; preds = %if.then5
  invoke void @_ZN6params5resetEv(ptr noundef nonnull align 8 dereferenceable(12) %2)
          to label %invoke.cont.i.i.i unwind label %terminate.lpad.i.i.i

invoke.cont.i.i.i:                                ; preds = %if.then.i
  %4 = load ptr, ptr %2, align 8
  %tobool.not.i.i.i.i.i.i = icmp eq ptr %4, null
  br i1 %tobool.not.i.i.i.i.i.i, label %_Z7deallocI6paramsEvPT_.exit.i, label %if.then.i.i.i.i.i.i

if.then.i.i.i.i.i.i:                              ; preds = %invoke.cont.i.i.i
  %add.ptr.i.i.i.i.i.i.i = getelementptr inbounds i8, ptr %4, i64 -8
  invoke void @_ZN6memory10deallocateEPv(ptr noundef nonnull %add.ptr.i.i.i.i.i.i.i)
          to label %_Z7deallocI6paramsEvPT_.exit.i unwind label %terminate.lpad.i.i.i.i.i

terminate.lpad.i.i.i.i.i:                         ; preds = %if.then.i.i.i.i.i.i
  %5 = landingpad { ptr, i32 }
          catch ptr null
  %6 = extractvalue { ptr, i32 } %5, 0
  tail call void @__clang_call_terminate(ptr %6) #17
  unreachable

terminate.lpad.i.i.i:                             ; preds = %if.then.i
  %7 = landingpad { ptr, i32 }
          catch ptr null
  %8 = extractvalue { ptr, i32 } %7, 0
  tail call void @__clang_call_terminate(ptr %8) #17
  unreachable

_Z7deallocI6paramsEvPT_.exit.i:                   ; preds = %if.then.i.i.i.i.i.i, %invoke.cont.i.i.i
  tail call void @_ZN6memory10deallocateEPv(ptr noundef nonnull %2)
  br label %if.end7

if.end7:                                          ; preds = %_Z7deallocI6paramsEvPT_.exit.i, %if.then5, %if.end
  %9 = load ptr, ptr %p, align 8
  store ptr %9, ptr %this, align 8
  ret void
}